; Function Attrs: mustprogress nounwind uwtable
define dso_local void @_ZN5clang15BackendConsumer22AssignInheritanceModelEPNS_13CXXRecordDeclE(ptr nocapture noundef nonnull readonly align 8 dereferenceable(392) %0, ptr noundef %1) unnamed_addr #0 align 2 {
  %3 = getelementptr inbounds nuw i8, ptr %0, i64 272
  %4 = load ptr, ptr %3, align 8
  %5 = load ptr, ptr %4, align 8
  %6 = getelementptr inbounds i8, ptr %5, i64 112
  %7 = load ptr, ptr %6, align 8
  tail call void %7(ptr noundef nonnull align 8 dereferenceable(9) %4, ptr noundef %1) #23
  ret void
}